target datalayout = "e-m:e-p270:32:32-p271:32:32-p272:64:64-i64:64-i128:128-f80:128-n8:16:32:64-S128"
target triple = "x86_64-pc-linux-gnu"

; Function Attrs: mustprogress uwtable
define dso_local noundef i32 @_Z9luaB_nextP9lua_State(ptr noundef %0) #0 {
  %2 = alloca i32, align 4
  %3 = alloca ptr, align 8
  store ptr %0, ptr %3, align 8
  %4 = load ptr, ptr %3, align 8
  call void @_Z14luaL_checktypeP9lua_Stateii(ptr noundef %4, i32 noundef 1, i32 noundef 6)
  %5 = load ptr, ptr %3, align 8
  call void @_Z10lua_settopP9lua_Statei(ptr noundef %5, i32 noundef 2)
  %6 = load ptr, ptr %3, align 8
  %7 = call noundef i32 @_Z8lua_nextP9lua_Statei(ptr noundef %6, i32 noundef 1)
  %8 = icmp ne i32 %7, 0
  br i1 %8, label %9, label %10

9:                                                ; preds = %1
  store i32 2, ptr %2, align 4
  br label %12

10:                                               ; preds = %1
  %11 = load ptr, ptr %3, align 8
  call void @_Z11lua_pushnilP9lua_State(ptr noundef %11)
  store i32 1, ptr %2, align 4
  br label %12

12:                                               ; preds = %10, %9
  %13 = load i32, ptr %2, align 4
  ret i32 %13
}