; Function Attrs: mustprogress uwtable
define dso_local noundef range(i32 1, 3) i32 @_Z9luaB_nextP9lua_State(ptr noundef %0) #0 {
  tail call void @_Z14luaL_checktypeP9lua_Stateii(ptr noundef %0, i32 noundef 1, i32 noundef 6)
  tail call void @_Z10lua_settopP9lua_Statei(ptr noundef %0, i32 noundef 2)
  %2 = tail call noundef i32 @_Z8lua_nextP9lua_Statei(ptr noundef %0, i32 noundef 1)
  %.not = icmp eq i32 %2, 0
  br i1 %.not, label %3, label %4

3:                                                ; preds = %1
  tail call void @_Z11lua_pushnilP9lua_State(ptr noundef %0)
  br label %4

4:                                                ; preds = %1, %3
  %.0 = phi i32 [ 1, %3 ], [ 2, %1 ]
  ret i32 %.0
}